; Function Attrs: mustprogress uwtable
define dso_local void @_ZN4absl13base_internal12ScopedSetEnvC2EPKcS3_(ptr noundef nonnull align 8 dereferenceable(65) %this, ptr noundef %var_name, ptr noundef %new_value) unnamed_addr #0 align 2 personality ptr @__gxx_personality_v0 {
entry:
  %ref.tmp = alloca %"class.std::allocator", align 1
  call void @_ZNSaIcEC1Ev(ptr noundef nonnull align 1 dereferenceable(1) %ref.tmp) #10
  %call.i3 = invoke noundef ptr @_ZNSt7__cxx1112basic_stringIcSt11char_traitsIcESaIcEE13_M_local_dataEv(ptr noundef nonnull align 8 dereferenceable(32) %this)
          to label %call.i.noexc unwind label %lpad

call.i.noexc:                                     ; preds = %entry
  invoke void @_ZNSt7__cxx1112basic_stringIcSt11char_traitsIcESaIcEE12_Alloc_hiderC1EPcRKS3_(ptr noundef nonnull align 8 dereferenceable(32) %this, ptr noundef %call.i3, ptr noundef nonnull align 1 dereferenceable(1) %ref.tmp)
          to label %.noexc unwind label %lpad

.noexc:                                           ; preds = %call.i.noexc
  %cmp.i = icmp eq ptr %var_name, null
  br i1 %cmp.i, label %if.then.i, label %if.end.i

if.then.i:                                        ; preds = %.noexc
  invoke void @_ZSt19__throw_logic_errorPKc(ptr noundef nonnull @.str) #11
          to label %invoke.cont.i unwind label %lpad.i

invoke.cont.i:                                    ; preds = %if.then.i
  unreachable

lpad.i:                                           ; preds = %if.end.i, %if.then.i
  %0 = landingpad { ptr, i32 }
          cleanup
  call void @_ZNSaIcED2Ev(ptr noundef nonnull align 8 dereferenceable(32) %this) #10
  br label %lpad.body

if.end.i:                                         ; preds = %.noexc
  %call.i.i = call noundef i64 @strlen(ptr noundef nonnull dereferenceable(1) %var_name) #10
  %add.ptr.i = getelementptr inbounds i8, ptr %var_name, i64 %call.i.i
  invoke void @_ZNSt7__cxx1112basic_stringIcSt11char_traitsIcESaIcEE12_M_constructIPKcEEvT_S8_St20forward_iterator_tag(ptr noundef nonnull align 8 dereferenceable(32) %this, ptr noundef nonnull %var_name, ptr noundef nonnull %add.ptr.i)
          to label %invoke.cont unwind label %lpad.i

invoke.cont:                                      ; preds = %if.end.i
  call void @_ZNSaIcED1Ev(ptr noundef nonnull align 1 dereferenceable(1) %ref.tmp) #10
  %old_value_ = getelementptr inbounds nuw i8, ptr %this, i64 32
  call void @_ZNSt7__cxx1112basic_stringIcSt11char_traitsIcESaIcEEC1Ev(ptr noundef nonnull align 8 dereferenceable(32) %old_value_) #10
  %was_unset_ = getelementptr inbounds nuw i8, ptr %this, i64 64
  store i8 0, ptr %was_unset_, align 8
  %call = call noundef ptr @_ZNKSt7__cxx1112basic_stringIcSt11char_traitsIcESaIcEE5c_strEv(ptr noundef nonnull align 8 dereferenceable(32) %this) #10
  %call3 = call ptr @getenv(ptr noundef %call) #10
  %cmp = icmp eq ptr %call3, null
  br i1 %cmp, label %if.then, label %if.else

if.then:                                          ; preds = %invoke.cont
  store i8 1, ptr %was_unset_, align 8
  br label %if.end

lpad:                                             ; preds = %call.i.noexc, %entry
  %1 = landingpad { ptr, i32 }
          cleanup
  br label %lpad.body

lpad.body:                                        ; preds = %lpad.i, %lpad
  %eh.lpad-body = phi { ptr, i32 } [ %1, %lpad ], [ %0, %lpad.i ]
  call void @_ZNSaIcED1Ev(ptr noundef nonnull align 1 dereferenceable(1) %ref.tmp) #10
  br label %eh.resume

if.else:                                          ; preds = %invoke.cont
  %call8 = invoke noundef nonnull align 8 dereferenceable(32) ptr @_ZNSt7__cxx1112basic_stringIcSt11char_traitsIcESaIcEEaSEPKc(ptr noundef nonnull align 8 dereferenceable(32) %old_value_, ptr noundef nonnull %call3)
          to label %if.end unwind label %lpad6

lpad6:                                            ; preds = %if.else
  %2 = landingpad { ptr, i32 }
          cleanup
  call void @_ZNSt7__cxx1112basic_stringIcSt11char_traitsIcESaIcEED1Ev(ptr noundef nonnull align 8 dereferenceable(32) %old_value_) #10
  call void @_ZNSt7__cxx1112basic_stringIcSt11char_traitsIcESaIcEED1Ev(ptr noundef nonnull align 8 dereferenceable(32) %this) #10
  br label %eh.resume

if.end:                                           ; preds = %if.else, %if.then
  %call10 = call noundef ptr @_ZNKSt7__cxx1112basic_stringIcSt11char_traitsIcESaIcEE5c_strEv(ptr noundef nonnull align 8 dereferenceable(32) %this) #10
  %cmp.i4 = icmp eq ptr %new_value, null
  br i1 %cmp.i4, label %if.then.i6, label %if.else.i

if.then.i6:                                       ; preds = %if.end
  %call.i = call i32 @unsetenv(ptr noundef %call10) #10
  br label %_ZN4absl13base_internal12_GLOBAL__N_19SetEnvVarEPKcS3_.exit

if.else.i:                                        ; preds = %if.end
  %call1.i = call i32 @setenv(ptr noundef %call10, ptr noundef nonnull %new_value, i32 noundef 1) #10
  br label %_ZN4absl13base_internal12_GLOBAL__N_19SetEnvVarEPKcS3_.exit

_ZN4absl13base_internal12_GLOBAL__N_19SetEnvVarEPKcS3_.exit: ; preds = %if.then.i6, %if.else.i
  ret void

eh.resume:                                        ; preds = %lpad6, %lpad.body
  %.pn = phi { ptr, i32 } [ %2, %lpad6 ], [ %eh.lpad-body, %lpad.body ]
  resume { ptr, i32 } %.pn
}